; Function Attrs: mustprogress null_pointer_is_valid sspstrong uwtable
define void @_ZN14ExtcapArgument12defaultValueEv(ptr dead_on_unwind noalias writable sret(%class.QString) align 8 %0, ptr noundef readonly align 8 captures(none) dereferenceable_or_null(88) %1) unnamed_addr #0 align 2 {
  %3 = getelementptr inbounds nuw i8, ptr %1, i64 40
  %4 = load ptr, ptr %3, align 8
  %.not = icmp eq ptr %4, null
  br i1 %.not, label %.thread, label %5

5:                                                ; preds = %2
  %6 = getelementptr inbounds nuw i8, ptr %4, i64 96
  %7 = load ptr, ptr %6, align 8
  %.not6 = icmp eq ptr %7, null
  br i1 %.not6, label %.thread, label %8

8:                                                ; preds = %5
  %9 = tail call ptr @extcap_get_complex_as_string(ptr noundef nonnull %7)
  %.not7.not = icmp eq ptr %9, null
  br i1 %.not7.not, label %.thread, label %10

10:                                               ; preds = %8
  tail call void @_Z21gchar_free_to_qstringPc(ptr dead_on_unwind writable sret(%class.QString) align 8 %0, ptr noundef nonnull %9)
  br label %11

.thread:                                          ; preds = %8, %5, %2
  tail call void @llvm.memset.p0.i64(ptr noundef align 8 dereferenceable(24) dereferenceable_or_null(24) %0, i8 0, i64 24, i1 false)
  br label %11

11:                                               ; preds = %10, %.thread
  ret void
}